target datalayout = "e-m:e-p270:32:32-p271:32:32-p272:64:64-i64:64-i128:128-f80:128-n8:16:32:64-S128"
target triple = "x86_64-pc-linux-gnu"

%struct.BlockAcctCookie = type { i64, i64, i32 }

; Function Attrs: nounwind sspstrong uwtable
define internal i32 @aio_flush_f(ptr noundef %0, i32 noundef %1, ptr noundef %2) #0 {
  %4 = alloca ptr, align 8
  %5 = alloca i32, align 4
  %6 = alloca ptr, align 8
  %7 = alloca %struct.BlockAcctCookie, align 8
  store ptr %0, ptr %4, align 8
  store i32 %1, ptr %5, align 4
  store ptr %2, ptr %6, align 8
  call void @llvm.lifetime.start.p0(i64 24, ptr %7) #18
  call void @llvm.memset.p0.i64(ptr align 8 %7, i8 0, i64 24, i1 false), !annotation !4
  %8 = load ptr, ptr %4, align 8
  %9 = call ptr @blk_get_stats(ptr noundef %8)
  call void @block_acct_start(ptr noundef %9, ptr noundef %7, i64 noundef 0, i32 noundef 3)
  call void @blk_drain_all()
  %10 = load ptr, ptr %4, align 8
  %11 = call ptr @blk_get_stats(ptr noundef %10)
  call void @block_acct_done(ptr noundef %11, ptr noundef %7)
  call void @llvm.lifetime.end.p0(i64 24, ptr %7) #18
  ret i32 0
}