; Function Attrs: nounwind sspstrong uwtable
define internal noundef i32 @aio_flush_f(ptr noundef %0, i32 %1, ptr readnone captures(none) %2) #0 {
  %4 = alloca %struct.BlockAcctCookie, align 8
  call void @llvm.lifetime.start.p0(i64 24, ptr nonnull %4) #26
  call void @llvm.memset.p0.i64(ptr noundef nonnull align 8 dereferenceable(24) %4, i8 0, i64 24, i1 false), !annotation !8
  %5 = tail call ptr @blk_get_stats(ptr noundef %0) #26
  call void @block_acct_start(ptr noundef %5, ptr noundef nonnull %4, i64 noundef 0, i32 noundef 3) #26
  call void @blk_drain_all() #26
  %6 = call ptr @blk_get_stats(ptr noundef %0) #26
  call void @block_acct_done(ptr noundef %6, ptr noundef nonnull %4) #26
  call void @llvm.lifetime.end.p0(i64 24, ptr nonnull %4) #26
  ret i32 0
}